; Function Attrs: nounwind uwtable
define range(i32 -1, 1) i32 @H5Pset_relax_file_integrity_checks(i64 noundef %0, i64 noundef %1) local_unnamed_addr #0 {
  %3 = alloca i64, align 8
  %4 = alloca %struct.H5CX_node_t, align 8
  store i64 %1, ptr %3, align 8, !tbaa !3
  call void @llvm.lifetime.start.p0(i64 480, ptr nonnull %4) #15
  call void @llvm.memset.p0.i64(ptr noundef nonnull align 8 dereferenceable(480) %4, i8 0, i64 480, i1 false)
  %5 = load i8, ptr @H5_libinit_g, align 1, !tbaa !16, !range !18, !noundef !19
  %6 = trunc nuw i8 %5 to i1
  %7 = load i8, ptr @H5_libterm_g, align 1, !range !18
  %8 = trunc nuw i8 %7 to i1
  %9 = select i1 %6, i1 true, i1 %8
  br i1 %9, label %17, label %10, !prof !20

10:                                               ; preds = %2
  %11 = tail call i32 @H5_init_library() #15
  %12 = icmp slt i32 %11, 0
  br i1 %12, label %13, label %._crit_edge, !prof !28

._crit_edge:                                      ; preds = %10
  %.pre = load i8, ptr @H5_libterm_g, align 1, !range !18
  br label %17

13:                                               ; preds = %10
  %14 = load i64, ptr @H5E_FUNC_g, align 8, !tbaa !3
  %15 = load i64, ptr @H5E_CANTINIT_g, align 8, !tbaa !3
  %16 = tail call i32 (ptr, ptr, i32, i64, i64, ptr, ...) @H5E_printf_stack(ptr noundef nonnull @.str.2, ptr noundef nonnull @__func__.H5Pset_relax_file_integrity_checks, i32 noundef 6296, i64 noundef %14, i64 noundef %15, ptr noundef nonnull @.str.15) #15
  br label %.thread24

17:                                               ; preds = %._crit_edge, %2
  %18 = phi i8 [ %.pre, %._crit_edge ], [ %7, %2 ]
  %19 = load i8, ptr @H5P_init_g, align 1, !tbaa !16, !range !18, !noundef !19
  %20 = trunc nuw i8 %19 to i1
  %21 = trunc nuw i8 %18 to i1
  %22 = select i1 %20, i1 true, i1 %21
  br i1 %22, label %30, label %23, !prof !20

23:                                               ; preds = %17
  store i8 1, ptr @H5P_init_g, align 1, !tbaa !16
  %24 = tail call i32 @H5P__init_package() #15
  %25 = icmp slt i32 %24, 0
  br i1 %25, label %26, label %30, !prof !29

26:                                               ; preds = %23
  store i8 0, ptr @H5P_init_g, align 1, !tbaa !16
  %27 = load i64, ptr @H5E_FUNC_g, align 8, !tbaa !3
  %28 = load i64, ptr @H5E_CANTINIT_g, align 8, !tbaa !3
  %29 = tail call i32 (ptr, ptr, i32, i64, i64, ptr, ...) @H5E_printf_stack(ptr noundef nonnull @.str.2, ptr noundef nonnull @__func__.H5Pset_relax_file_integrity_checks, i32 noundef 6296, i64 noundef %27, i64 noundef %28, ptr noundef nonnull @.str.16) #15
  br label %.thread24

30:                                               ; preds = %17, %23
  %31 = call i32 @H5CX_push(ptr noundef nonnull %4) #15
  %32 = icmp slt i32 %31, 0
  br i1 %32, label %33, label %37, !prof !28

33:                                               ; preds = %30
  %34 = load i64, ptr @H5E_FUNC_g, align 8, !tbaa !3
  %35 = load i64, ptr @H5E_CANTSET_g, align 8, !tbaa !3
  %36 = call i32 (ptr, ptr, i32, i64, i64, ptr, ...) @H5E_printf_stack(ptr noundef nonnull @.str.2, ptr noundef nonnull @__func__.H5Pset_relax_file_integrity_checks, i32 noundef 6296, i64 noundef %34, i64 noundef %35, ptr noundef nonnull @.str.17) #15
  br label %.thread24

37:                                               ; preds = %30
  %38 = call i32 @H5E_clear_stack() #15
  %39 = icmp eq i64 %0, 0
  br i1 %39, label %40, label %44, !prof !30

40:                                               ; preds = %37
  %41 = load i64, ptr @H5E_ARGS_g, align 8, !tbaa !3
  %42 = load i64, ptr @H5E_BADVALUE_g, align 8, !tbaa !3
  %43 = call i32 (ptr, ptr, i32, i64, i64, ptr, ...) @H5E_printf_stack(ptr noundef nonnull @.str.2, ptr noundef nonnull @__func__.H5Pset_relax_file_integrity_checks, i32 noundef 6300, i64 noundef %41, i64 noundef %42, ptr noundef nonnull @.str.41) #15
  br label %.thread30

44:                                               ; preds = %37
  %45 = and i64 %1, 4294967294
  %.not = icmp eq i64 %45, 0
  br i1 %.not, label %50, label %46, !prof !37

46:                                               ; preds = %44
  %47 = load i64, ptr @H5E_ARGS_g, align 8, !tbaa !3
  %48 = load i64, ptr @H5E_BADVALUE_g, align 8, !tbaa !3
  %49 = call i32 (ptr, ptr, i32, i64, i64, ptr, ...) @H5E_printf_stack(ptr noundef nonnull @.str.2, ptr noundef nonnull @__func__.H5Pset_relax_file_integrity_checks, i32 noundef 6302, i64 noundef %47, i64 noundef %48, ptr noundef nonnull @.str.166) #15
  br label %.thread30

50:                                               ; preds = %44
  %51 = load i64, ptr @H5P_CLS_FILE_ACCESS_ID_g, align 8, !tbaa !3
  %52 = call ptr @H5P_object_verify(i64 noundef %0, i64 noundef %51, i1 noundef zeroext false) #15
  %53 = icmp eq ptr %52, null
  br i1 %53, label %54, label %58, !prof !30

54:                                               ; preds = %50
  %55 = load i64, ptr @H5E_ARGS_g, align 8, !tbaa !3
  %56 = load i64, ptr @H5E_BADVALUE_g, align 8, !tbaa !3
  %57 = call i32 (ptr, ptr, i32, i64, i64, ptr, ...) @H5E_printf_stack(ptr noundef nonnull @.str.2, ptr noundef nonnull @__func__.H5Pset_relax_file_integrity_checks, i32 noundef 6306, i64 noundef %55, i64 noundef %56, ptr noundef nonnull @.str.123) #15
  br label %.thread30

58:                                               ; preds = %50
  %59 = call i32 @H5P_set(ptr noundef nonnull %52, ptr noundef nonnull @.str.167, ptr noundef nonnull %3) #15
  %60 = icmp slt i32 %59, 0
  br i1 %60, label %61, label %66, !prof !30

61:                                               ; preds = %58
  %62 = load i64, ptr @H5E_PLIST_g, align 8, !tbaa !3
  %63 = load i64, ptr @H5E_CANTSET_g, align 8, !tbaa !3
  %64 = call i32 (ptr, ptr, i32, i64, i64, ptr, ...) @H5E_printf_stack(ptr noundef nonnull @.str.2, ptr noundef nonnull @__func__.H5Pset_relax_file_integrity_checks, i32 noundef 6310, i64 noundef %62, i64 noundef %63, ptr noundef nonnull @.str.168) #15
  br label %.thread30

.thread30:                                        ; preds = %61, %54, %46, %40
  %65 = call i32 @H5CX_pop(i1 noundef zeroext true) #15
  br label %.thread24

66:                                               ; preds = %58
  %67 = call i32 @H5CX_pop(i1 noundef zeroext true) #15
  br label %69

.thread24:                                        ; preds = %33, %26, %13, %.thread30
  %68 = call i32 @H5E_dump_api_stack() #15
  br label %69

69:                                               ; preds = %66, %.thread24
  %.0131927 = phi i32 [ -1, %.thread24 ], [ 0, %66 ]
  call void @llvm.lifetime.end.p0(i64 480, ptr nonnull %4) #15
  ret i32 %.0131927
}